target datalayout = "e-m:e-p270:32:32-p271:32:32-p272:64:64-i64:64-i128:128-f80:128-n8:16:32:64-S128"
target triple = "x86_64-pc-linux-gnu"

%struct.CVodeMemRec = type { ptr, double, ptr, ptr, i32, i32, double, double, ptr, i32, i32, ptr, ptr, i32, [13 x ptr], ptr, ptr, ptr, ptr, ptr, ptr, ptr, ptr, ptr, i32, i32, double, i32, i32, i32, i32, i32, double, double, double, double, double, double, double, double, [14 x double], [6 x double], [13 x double], double, double, double, double, double, double, double, i32, double, i32, i64, i32, i32, i32, double, double, double, double, double, double, double, double, double, double, double, double, i64, i32, i64, i64, i64, i64, i64, i64, i64, i32, double, double, double, i64, i64, i64, i64, ptr, i32, ptr, i32, ptr, ptr, ptr, ptr, ptr, i64, double, i32, i64, double, double, double, i32, double, i32, i32, i32, i32, i32, ptr, i64, i32, [6 x [4 x double]], i32, i64, ptr, i32, ptr, ptr, double, double, double, ptr, ptr, ptr, double, double, i32, i32, i64, ptr, i32, ptr, i32, i32, [13 x double], [13 x double], [13 x ptr], i32 }

@.str = private unnamed_addr constant [113 x i8] c"generated/home/dtcxzyw/WorkSpace/Projects/compilers/llvm-opt-benchmark/bench/sundials/sundials/src/cvode/cvode.c\00", align 1
@.str.4 = private unnamed_addr constant [26 x i8] c"cvode_mem = NULL illegal.\00", align 1
@__func__.CVodeGetDky = private unnamed_addr constant [12 x i8] c"CVodeGetDky\00", align 1
@.str.32 = private unnamed_addr constant [20 x i8] c"dky = NULL illegal.\00", align 1
@.str.33 = private unnamed_addr constant [21 x i8] c"Illegal value for k.\00", align 1
@.str.34 = private unnamed_addr constant [75 x i8] c"Illegal value for t.t = %lg is not between tcur - hu = %lg and tcur = %lg.\00", align 1

; Function Attrs: nounwind uwtable
define i32 @CVodeGetDky(ptr noundef %0, double noundef %1, i32 noundef %2, ptr noundef %3) #0 {
  %5 = alloca i32, align 4
  %6 = alloca ptr, align 8
  %7 = alloca double, align 8
  %8 = alloca i32, align 4
  %9 = alloca ptr, align 8
  %10 = alloca double, align 8
  %11 = alloca double, align 8
  %12 = alloca double, align 8
  %13 = alloca double, align 8
  %14 = alloca double, align 8
  %15 = alloca i32, align 4
  %16 = alloca i32, align 4
  %17 = alloca i32, align 4
  %18 = alloca i32, align 4
  %19 = alloca ptr, align 8
  %20 = alloca i32, align 4
  store ptr %0, ptr %6, align 8, !tbaa !89
  store double %1, ptr %7, align 8, !tbaa !90
  store i32 %2, ptr %8, align 4, !tbaa !3
  store ptr %3, ptr %9, align 8, !tbaa !91
  call void @llvm.lifetime.start.p0(i64 8, ptr %10) #10
  call void @llvm.lifetime.start.p0(i64 8, ptr %11) #10
  call void @llvm.lifetime.start.p0(i64 8, ptr %12) #10
  call void @llvm.lifetime.start.p0(i64 8, ptr %13) #10
  call void @llvm.lifetime.start.p0(i64 8, ptr %14) #10
  call void @llvm.lifetime.start.p0(i64 4, ptr %15) #10
  call void @llvm.lifetime.start.p0(i64 4, ptr %16) #10
  call void @llvm.lifetime.start.p0(i64 4, ptr %17) #10
  call void @llvm.lifetime.start.p0(i64 4, ptr %18) #10
  call void @llvm.lifetime.start.p0(i64 8, ptr %19) #10
  %21 = load ptr, ptr %6, align 8, !tbaa !89
  %22 = icmp eq ptr %21, null
  br i1 %22, label %23, label %24

23:                                               ; preds = %4
  call void (ptr, i32, i32, ptr, ptr, ptr, ...) @cvProcessError(ptr noundef null, i32 noundef -21, i32 noundef 1632, ptr noundef @__func__.CVodeGetDky, ptr noundef @.str, ptr noundef @.str.4)
  store i32 -21, ptr %5, align 4
  store i32 1, ptr %20, align 4
  br label %206

24:                                               ; preds = %4
  %25 = load ptr, ptr %6, align 8, !tbaa !89
  store ptr %25, ptr %19, align 8, !tbaa !10
  %26 = load ptr, ptr %9, align 8, !tbaa !91
  %27 = icmp eq ptr %26, null
  br i1 %27, label %28, label %30

28:                                               ; preds = %24
  %29 = load ptr, ptr %19, align 8, !tbaa !10
  call void (ptr, i32, i32, ptr, ptr, ptr, ...) @cvProcessError(ptr noundef %29, i32 noundef -26, i32 noundef 1641, ptr noundef @__func__.CVodeGetDky, ptr noundef @.str, ptr noundef @.str.32)
  store i32 -26, ptr %5, align 4
  store i32 1, ptr %20, align 4
  br label %206

30:                                               ; preds = %24
  %31 = load i32, ptr %8, align 4, !tbaa !3
  %32 = icmp slt i32 %31, 0
  br i1 %32, label %39, label %33

33:                                               ; preds = %30
  %34 = load i32, ptr %8, align 4, !tbaa !3
  %35 = load ptr, ptr %19, align 8, !tbaa !10
  %36 = getelementptr inbounds nuw %struct.CVodeMemRec, ptr %35, i32 0, i32 27
  %37 = load i32, ptr %36, align 8, !tbaa !101
  %38 = icmp sgt i32 %34, %37
  br i1 %38, label %39, label %41

39:                                               ; preds = %33, %30
  %40 = load ptr, ptr %19, align 8, !tbaa !10
  call void (ptr, i32, i32, ptr, ptr, ptr, ...) @cvProcessError(ptr noundef %40, i32 noundef -24, i32 noundef 1649, ptr noundef @__func__.CVodeGetDky, ptr noundef @.str, ptr noundef @.str.33)
  store i32 -24, ptr %5, align 4
  store i32 1, ptr %20, align 4
  br label %206

41:                                               ; preds = %33
  %42 = load ptr, ptr %19, align 8, !tbaa !10
  %43 = getelementptr inbounds nuw %struct.CVodeMemRec, ptr %42, i32 0, i32 1
  %44 = load double, ptr %43, align 8, !tbaa !22
  %45 = fmul double 1.000000e+02, %44
  %46 = load ptr, ptr %19, align 8, !tbaa !10
  %47 = getelementptr inbounds nuw %struct.CVodeMemRec, ptr %46, i32 0, i32 38
  %48 = load double, ptr %47, align 8, !tbaa !99
  %49 = call double @llvm.fabs.f64(double %48)
  %50 = load ptr, ptr %19, align 8, !tbaa !10
  %51 = getelementptr inbounds nuw %struct.CVodeMemRec, ptr %50, i32 0, i32 100
  %52 = load double, ptr %51, align 8, !tbaa !106
  %53 = call double @llvm.fabs.f64(double %52)
  %54 = fadd double %49, %53
  %55 = fmul double %45, %54
  store double %55, ptr %12, align 8, !tbaa !90
  %56 = load ptr, ptr %19, align 8, !tbaa !10
  %57 = getelementptr inbounds nuw %struct.CVodeMemRec, ptr %56, i32 0, i32 100
  %58 = load double, ptr %57, align 8, !tbaa !106
  %59 = fcmp olt double %58, 0.000000e+00
  br i1 %59, label %60, label %63

60:                                               ; preds = %41
  %61 = load double, ptr %12, align 8, !tbaa !90
  %62 = fneg double %61
  store double %62, ptr %12, align 8, !tbaa !90
  br label %63

63:                                               ; preds = %60, %41
  %64 = load ptr, ptr %19, align 8, !tbaa !10
  %65 = getelementptr inbounds nuw %struct.CVodeMemRec, ptr %64, i32 0, i32 38
  %66 = load double, ptr %65, align 8, !tbaa !99
  %67 = load ptr, ptr %19, align 8, !tbaa !10
  %68 = getelementptr inbounds nuw %struct.CVodeMemRec, ptr %67, i32 0, i32 100
  %69 = load double, ptr %68, align 8, !tbaa !106
  %70 = fsub double %66, %69
  %71 = load double, ptr %12, align 8, !tbaa !90
  %72 = fsub double %70, %71
  store double %72, ptr %13, align 8, !tbaa !90
  %73 = load ptr, ptr %19, align 8, !tbaa !10
  %74 = getelementptr inbounds nuw %struct.CVodeMemRec, ptr %73, i32 0, i32 38
  %75 = load double, ptr %74, align 8, !tbaa !99
  %76 = load double, ptr %12, align 8, !tbaa !90
  %77 = fadd double %75, %76
  store double %77, ptr %14, align 8, !tbaa !90
  %78 = load double, ptr %7, align 8, !tbaa !90
  %79 = load double, ptr %13, align 8, !tbaa !90
  %80 = fsub double %78, %79
  %81 = load double, ptr %7, align 8, !tbaa !90
  %82 = load double, ptr %14, align 8, !tbaa !90
  %83 = fsub double %81, %82
  %84 = fmul double %80, %83
  %85 = fcmp ogt double %84, 0.000000e+00
  br i1 %85, label %86, label %99

86:                                               ; preds = %63
  %87 = load ptr, ptr %19, align 8, !tbaa !10
  %88 = load double, ptr %7, align 8, !tbaa !90
  %89 = load ptr, ptr %19, align 8, !tbaa !10
  %90 = getelementptr inbounds nuw %struct.CVodeMemRec, ptr %89, i32 0, i32 38
  %91 = load double, ptr %90, align 8, !tbaa !99
  %92 = load ptr, ptr %19, align 8, !tbaa !10
  %93 = getelementptr inbounds nuw %struct.CVodeMemRec, ptr %92, i32 0, i32 100
  %94 = load double, ptr %93, align 8, !tbaa !106
  %95 = fsub double %91, %94
  %96 = load ptr, ptr %19, align 8, !tbaa !10
  %97 = getelementptr inbounds nuw %struct.CVodeMemRec, ptr %96, i32 0, i32 38
  %98 = load double, ptr %97, align 8, !tbaa !99
  call void (ptr, i32, i32, ptr, ptr, ptr, ...) @cvProcessError(ptr noundef %87, i32 noundef -25, i32 noundef 1662, ptr noundef @__func__.CVodeGetDky, ptr noundef @.str, ptr noundef @.str.34, double noundef %88, double noundef %95, double noundef %98)
  store i32 -25, ptr %5, align 4
  store i32 1, ptr %20, align 4
  br label %206

99:                                               ; preds = %63
  store i32 0, ptr %17, align 4, !tbaa !3
  %100 = load double, ptr %7, align 8, !tbaa !90
  %101 = load ptr, ptr %19, align 8, !tbaa !10
  %102 = getelementptr inbounds nuw %struct.CVodeMemRec, ptr %101, i32 0, i32 38
  %103 = load double, ptr %102, align 8, !tbaa !99
  %104 = fsub double %100, %103
  %105 = load ptr, ptr %19, align 8, !tbaa !10
  %106 = getelementptr inbounds nuw %struct.CVodeMemRec, ptr %105, i32 0, i32 33
  %107 = load double, ptr %106, align 8, !tbaa !158
  %108 = fdiv double %104, %107
  store double %108, ptr %10, align 8, !tbaa !90
  %109 = load ptr, ptr %19, align 8, !tbaa !10
  %110 = getelementptr inbounds nuw %struct.CVodeMemRec, ptr %109, i32 0, i32 27
  %111 = load i32, ptr %110, align 8, !tbaa !101
  store i32 %111, ptr %16, align 4, !tbaa !3
  br label %112

112:                                              ; preds = %176, %99
  %113 = load i32, ptr %16, align 4, !tbaa !3
  %114 = load i32, ptr %8, align 4, !tbaa !3
  %115 = icmp sge i32 %113, %114
  br i1 %115, label %116, label %179

116:                                              ; preds = %112
  %117 = load ptr, ptr %19, align 8, !tbaa !10
  %118 = getelementptr inbounds nuw %struct.CVodeMemRec, ptr %117, i32 0, i32 136
  %119 = load i32, ptr %17, align 4, !tbaa !3
  %120 = sext i32 %119 to i64
  %121 = getelementptr inbounds [13 x double], ptr %118, i64 0, i64 %120
  store double 1.000000e+00, ptr %121, align 8, !tbaa !90
  %122 = load i32, ptr %16, align 4, !tbaa !3
  store i32 %122, ptr %15, align 4, !tbaa !3
  br label %123

123:                                              ; preds = %140, %116
  %124 = load i32, ptr %15, align 4, !tbaa !3
  %125 = load i32, ptr %16, align 4, !tbaa !3
  %126 = load i32, ptr %8, align 4, !tbaa !3
  %127 = sub nsw i32 %125, %126
  %128 = add nsw i32 %127, 1
  %129 = icmp sge i32 %124, %128
  br i1 %129, label %130, label %143

130:                                              ; preds = %123
  %131 = load i32, ptr %15, align 4, !tbaa !3
  %132 = sitofp i32 %131 to double
  %133 = load ptr, ptr %19, align 8, !tbaa !10
  %134 = getelementptr inbounds nuw %struct.CVodeMemRec, ptr %133, i32 0, i32 136
  %135 = load i32, ptr %17, align 4, !tbaa !3
  %136 = sext i32 %135 to i64
  %137 = getelementptr inbounds [13 x double], ptr %134, i64 0, i64 %136
  %138 = load double, ptr %137, align 8, !tbaa !90
  %139 = fmul double %138, %132
  store double %139, ptr %137, align 8, !tbaa !90
  br label %140

140:                                              ; preds = %130
  %141 = load i32, ptr %15, align 4, !tbaa !3
  %142 = add nsw i32 %141, -1
  store i32 %142, ptr %15, align 4, !tbaa !3
  br label %123

143:                                              ; preds = %123
  store i32 0, ptr %15, align 4, !tbaa !3
  br label %144

144:                                              ; preds = %159, %143
  %145 = load i32, ptr %15, align 4, !tbaa !3
  %146 = load i32, ptr %16, align 4, !tbaa !3
  %147 = load i32, ptr %8, align 4, !tbaa !3
  %148 = sub nsw i32 %146, %147
  %149 = icmp slt i32 %145, %148
  br i1 %149, label %150, label %162

150:                                              ; preds = %144
  %151 = load double, ptr %10, align 8, !tbaa !90
  %152 = load ptr, ptr %19, align 8, !tbaa !10
  %153 = getelementptr inbounds nuw %struct.CVodeMemRec, ptr %152, i32 0, i32 136
  %154 = load i32, ptr %17, align 4, !tbaa !3
  %155 = sext i32 %154 to i64
  %156 = getelementptr inbounds [13 x double], ptr %153, i64 0, i64 %155
  %157 = load double, ptr %156, align 8, !tbaa !90
  %158 = fmul double %157, %151
  store double %158, ptr %156, align 8, !tbaa !90
  br label %159

159:                                              ; preds = %150
  %160 = load i32, ptr %15, align 4, !tbaa !3
  %161 = add nsw i32 %160, 1
  store i32 %161, ptr %15, align 4, !tbaa !3
  br label %144

162:                                              ; preds = %144
  %163 = load ptr, ptr %19, align 8, !tbaa !10
  %164 = getelementptr inbounds nuw %struct.CVodeMemRec, ptr %163, i32 0, i32 14
  %165 = load i32, ptr %16, align 4, !tbaa !3
  %166 = sext i32 %165 to i64
  %167 = getelementptr inbounds [13 x ptr], ptr %164, i64 0, i64 %166
  %168 = load ptr, ptr %167, align 8, !tbaa !91
  %169 = load ptr, ptr %19, align 8, !tbaa !10
  %170 = getelementptr inbounds nuw %struct.CVodeMemRec, ptr %169, i32 0, i32 137
  %171 = load i32, ptr %17, align 4, !tbaa !3
  %172 = sext i32 %171 to i64
  %173 = getelementptr inbounds [13 x ptr], ptr %170, i64 0, i64 %172
  store ptr %168, ptr %173, align 8, !tbaa !91
  %174 = load i32, ptr %17, align 4, !tbaa !3
  %175 = add nsw i32 %174, 1
  store i32 %175, ptr %17, align 4, !tbaa !3
  br label %176

176:                                              ; preds = %162
  %177 = load i32, ptr %16, align 4, !tbaa !3
  %178 = add nsw i32 %177, -1
  store i32 %178, ptr %16, align 4, !tbaa !3
  br label %112

179:                                              ; preds = %112
  %180 = load i32, ptr %17, align 4, !tbaa !3
  %181 = load ptr, ptr %19, align 8, !tbaa !10
  %182 = getelementptr inbounds nuw %struct.CVodeMemRec, ptr %181, i32 0, i32 136
  %183 = getelementptr inbounds [13 x double], ptr %182, i64 0, i64 0
  %184 = load ptr, ptr %19, align 8, !tbaa !10
  %185 = getelementptr inbounds nuw %struct.CVodeMemRec, ptr %184, i32 0, i32 137
  %186 = getelementptr inbounds [13 x ptr], ptr %185, i64 0, i64 0
  %187 = load ptr, ptr %9, align 8, !tbaa !91
  %188 = call i32 @N_VLinearCombination(i32 noundef %180, ptr noundef %183, ptr noundef %186, ptr noundef %187)
  store i32 %188, ptr %18, align 4, !tbaa !3
  %189 = load i32, ptr %18, align 4, !tbaa !3
  %190 = icmp ne i32 %189, 0
  br i1 %190, label %191, label %192

191:                                              ; preds = %179
  store i32 -28, ptr %5, align 4
  store i32 1, ptr %20, align 4
  br label %206

192:                                              ; preds = %179
  %193 = load i32, ptr %8, align 4, !tbaa !3
  %194 = icmp eq i32 %193, 0
  br i1 %194, label %195, label %196

195:                                              ; preds = %192
  store i32 0, ptr %5, align 4
  store i32 1, ptr %20, align 4
  br label %206

196:                                              ; preds = %192
  %197 = load ptr, ptr %19, align 8, !tbaa !10
  %198 = getelementptr inbounds nuw %struct.CVodeMemRec, ptr %197, i32 0, i32 33
  %199 = load double, ptr %198, align 8, !tbaa !158
  %200 = load i32, ptr %8, align 4, !tbaa !3
  %201 = sub nsw i32 0, %200
  %202 = call double @SUNRpowerI(double noundef %199, i32 noundef %201)
  store double %202, ptr %11, align 8, !tbaa !90
  %203 = load double, ptr %11, align 8, !tbaa !90
  %204 = load ptr, ptr %9, align 8, !tbaa !91
  %205 = load ptr, ptr %9, align 8, !tbaa !91
  call void @N_VScale(double noundef %203, ptr noundef %204, ptr noundef %205)
  store i32 0, ptr %5, align 4
  store i32 1, ptr %20, align 4
  br label %206

206:                                              ; preds = %196, %195, %191, %86, %39, %28, %23
  call void @llvm.lifetime.end.p0(i64 8, ptr %19) #10
  call void @llvm.lifetime.end.p0(i64 4, ptr %18) #10
  call void @llvm.lifetime.end.p0(i64 4, ptr %17) #10
  call void @llvm.lifetime.end.p0(i64 4, ptr %16) #10
  call void @llvm.lifetime.end.p0(i64 4, ptr %15) #10
  call void @llvm.lifetime.end.p0(i64 8, ptr %14) #10
  call void @llvm.lifetime.end.p0(i64 8, ptr %13) #10
  call void @llvm.lifetime.end.p0(i64 8, ptr %12) #10
  call void @llvm.lifetime.end.p0(i64 8, ptr %11) #10
  call void @llvm.lifetime.end.p0(i64 8, ptr %10) #10
  %207 = load i32, ptr %5, align 4
  ret i32 %207
}